target datalayout = "e-m:e-p270:32:32-p271:32:32-p272:64:64-i64:64-i128:128-f80:128-n8:16:32:64-S128"
target triple = "x86_64-pc-linux-gnu"

%"class.cv::_InputArray" = type { i32, ptr, %"class.cv::Size_" }
%"class.cv::Size_" = type { i32, i32 }
%"class.cv::Mat" = type { i32, i32, i32, i32, ptr, ptr, ptr, ptr, ptr, ptr, %"struct.cv::MatSize", %"struct.cv::MatStep" }
%"struct.cv::MatSize" = type { ptr }
%"struct.cv::MatStep" = type { ptr, [2 x i64] }
%"class.cv::Vec.9" = type { %"class.cv::Matx.10" }
%"class.cv::Matx.10" = type { [4 x double] }
%"class.cv::_OutputArray" = type { %"class.cv::_InputArray" }
%"class.cv::Scalar_" = type { %"class.cv::Vec.9" }

; Function Attrs: inlinehint mustprogress nounwind uwtable
define linkonce_odr hidden void @_ZN2cv4MatxIdLi4ELi1EEC2Ev(ptr noundef nonnull align 8 dereferenceable(32) %0) unnamed_addr #9 comdat align 2 {
  %2 = alloca ptr, align 8
  %3 = alloca i32, align 4
  store ptr %0, ptr %2, align 8, !tbaa !358
  %4 = load ptr, ptr %2, align 8
  call void @llvm.lifetime.start.p0(i64 4, ptr %3) #3
  store i32 0, ptr %3, align 4, !tbaa !14
  br label %5

5:                                                ; preds = %14, %1
  %6 = load i32, ptr %3, align 4, !tbaa !14
  %7 = icmp slt i32 %6, 4
  br i1 %7, label %9, label %8

8:                                                ; preds = %5
  call void @llvm.lifetime.end.p0(i64 4, ptr %3) #3
  br label %17

9:                                                ; preds = %5
  %10 = getelementptr inbounds nuw %"class.cv::Matx.10", ptr %4, i32 0, i32 0
  %11 = load i32, ptr %3, align 4, !tbaa !14
  %12 = sext i32 %11 to i64
  %13 = getelementptr inbounds [4 x double], ptr %10, i64 0, i64 %12
  store double 0.000000e+00, ptr %13, align 8, !tbaa !12
  br label %14

14:                                               ; preds = %9
  %15 = load i32, ptr %3, align 4, !tbaa !14
  %16 = add nsw i32 %15, 1
  store i32 %16, ptr %3, align 4, !tbaa !14
  br label %5, !llvm.loop !376

17:                                               ; preds = %8
  ret void
}

; Function Attrs: inlinehint mustprogress uwtable
define linkonce_odr hidden void @_ZN2cv3VecIdLi4EEC2Ev(ptr noundef nonnull align 8 dereferenceable(32) %0) unnamed_addr #6 comdat align 2 {
  %2 = alloca ptr, align 8
  store ptr %0, ptr %2, align 8, !tbaa !81
  %3 = load ptr, ptr %2, align 8
  call void @_ZN2cv4MatxIdLi4ELi1EEC2Ev(ptr noundef nonnull align 8 dereferenceable(32) %3)
  ret void
}

; Function Attrs: inlinehint mustprogress nounwind uwtable
define linkonce_odr hidden void @_ZN2cv5Size_IiEC2Ev(ptr noundef nonnull align 4 dereferenceable(8) %0) unnamed_addr #9 comdat align 2 {
  %2 = alloca ptr, align 8
  store ptr %0, ptr %2, align 8, !tbaa !49
  %3 = load ptr, ptr %2, align 8
  %4 = getelementptr inbounds nuw %"class.cv::Size_", ptr %3, i32 0, i32 0
  store i32 0, ptr %4, align 4, !tbaa !51
  %5 = getelementptr inbounds nuw %"class.cv::Size_", ptr %3, i32 0, i32 1
  store i32 0, ptr %5, align 4, !tbaa !53
  ret void
}

; Function Attrs: inlinehint mustprogress nounwind uwtable
define linkonce_odr hidden void @_ZN2cv11_InputArray4initEiPKv(ptr noundef nonnull align 8 dereferenceable(24) %0, i32 noundef %1, ptr noundef %2) #9 comdat align 2 {
  %4 = alloca ptr, align 8
  %5 = alloca i32, align 4
  %6 = alloca ptr, align 8
  store ptr %0, ptr %4, align 8, !tbaa !3
  store i32 %1, ptr %5, align 4, !tbaa !14
  store ptr %2, ptr %6, align 8, !tbaa !283
  %7 = load ptr, ptr %4, align 8
  %8 = load i32, ptr %5, align 4, !tbaa !14
  %9 = getelementptr inbounds nuw %"class.cv::_InputArray", ptr %7, i32 0, i32 0
  store i32 %8, ptr %9, align 8, !tbaa !284
  %10 = load ptr, ptr %6, align 8, !tbaa !283
  %11 = getelementptr inbounds nuw %"class.cv::_InputArray", ptr %7, i32 0, i32 1
  store ptr %10, ptr %11, align 8, !tbaa !54
  ret void
}

; Function Attrs: inlinehint mustprogress uwtable
define linkonce_odr hidden void @_ZN2cv11_InputArrayC2Ev(ptr noundef nonnull align 8 dereferenceable(24) %0) unnamed_addr #6 comdat align 2 {
  %2 = alloca ptr, align 8
  store ptr %0, ptr %2, align 8, !tbaa !3
  %3 = load ptr, ptr %2, align 8
  %4 = getelementptr inbounds nuw %"class.cv::_InputArray", ptr %3, i32 0, i32 2
  call void @_ZN2cv5Size_IiEC2Ev(ptr noundef nonnull align 4 dereferenceable(8) %4)
  call void @_ZN2cv11_InputArray4initEiPKv(ptr noundef nonnull align 8 dereferenceable(24) %3, i32 noundef 0, ptr noundef null)
  ret void
}

; Function Attrs: inlinehint mustprogress uwtable
define linkonce_odr hidden void @_ZN2cv7Scalar_IdEC2Ev(ptr noundef nonnull align 8 dereferenceable(32) %0) unnamed_addr #6 comdat align 2 {
  %2 = alloca ptr, align 8
  store ptr %0, ptr %2, align 8, !tbaa !127
  %3 = load ptr, ptr %2, align 8
  call void @_ZN2cv3VecIdLi4EEC2Ev(ptr noundef nonnull align 8 dereferenceable(32) %3)
  %4 = getelementptr inbounds nuw %"class.cv::Matx.10", ptr %3, i32 0, i32 0
  %5 = getelementptr inbounds [4 x double], ptr %4, i64 0, i64 3
  store double 0.000000e+00, ptr %5, align 8, !tbaa !12
  %6 = getelementptr inbounds nuw %"class.cv::Matx.10", ptr %3, i32 0, i32 0
  %7 = getelementptr inbounds [4 x double], ptr %6, i64 0, i64 2
  store double 0.000000e+00, ptr %7, align 8, !tbaa !12
  %8 = getelementptr inbounds nuw %"class.cv::Matx.10", ptr %3, i32 0, i32 0
  %9 = getelementptr inbounds [4 x double], ptr %8, i64 0, i64 1
  store double 0.000000e+00, ptr %9, align 8, !tbaa !12
  %10 = getelementptr inbounds nuw %"class.cv::Matx.10", ptr %3, i32 0, i32 0
  %11 = getelementptr inbounds [4 x double], ptr %10, i64 0, i64 0
  store double 0.000000e+00, ptr %11, align 8, !tbaa !12
  ret void
}

; Function Attrs: inlinehint mustprogress uwtable
define linkonce_odr hidden void @_ZN2cv11_InputArrayC2ERKNS_3MatE(ptr noundef nonnull align 8 dereferenceable(24) %0, ptr noundef nonnull align 8 dereferenceable(96) %1) unnamed_addr #6 comdat align 2 {
  %3 = alloca ptr, align 8
  %4 = alloca ptr, align 8
  store ptr %0, ptr %3, align 8, !tbaa !3
  store ptr %1, ptr %4, align 8, !tbaa !56
  %5 = load ptr, ptr %3, align 8
  %6 = getelementptr inbounds nuw %"class.cv::_InputArray", ptr %5, i32 0, i32 2
  call void @_ZN2cv5Size_IiEC2Ev(ptr noundef nonnull align 4 dereferenceable(8) %6)
  %7 = load ptr, ptr %4, align 8, !tbaa !56
  call void @_ZN2cv11_InputArray4initEiPKv(ptr noundef nonnull align 8 dereferenceable(24) %5, i32 noundef 16842752, ptr noundef %7)
  ret void
}

; Function Attrs: inlinehint mustprogress nounwind uwtable
define linkonce_odr hidden void @_ZN2cv11_InputArrayD2Ev(ptr noundef nonnull align 8 dereferenceable(24) %0) unnamed_addr #9 comdat align 2 {
  %2 = alloca ptr, align 8
  store ptr %0, ptr %2, align 8, !tbaa !3
  ret void
}

; Function Attrs: inlinehint mustprogress uwtable
define linkonce_odr hidden void @_ZN2cv12_OutputArrayC2ERNS_3MatE(ptr noundef nonnull align 8 dereferenceable(24) %0, ptr noundef nonnull align 8 dereferenceable(96) %1) unnamed_addr #6 comdat align 2 personality ptr @__gxx_personality_v0 {
  %3 = alloca ptr, align 8
  %4 = alloca ptr, align 8
  %5 = alloca ptr, align 8
  %6 = alloca i32, align 4
  store ptr %0, ptr %3, align 8, !tbaa !8
  store ptr %1, ptr %4, align 8, !tbaa !56
  %7 = load ptr, ptr %3, align 8
  call void @_ZN2cv11_InputArrayC2Ev(ptr noundef nonnull align 8 dereferenceable(24) %7)
  %8 = load ptr, ptr %4, align 8, !tbaa !56
  invoke void @_ZN2cv11_InputArray4initEiPKv(ptr noundef nonnull align 8 dereferenceable(24) %7, i32 noundef 33619968, ptr noundef %8)
          to label %9 unwind label %10

9:                                                ; preds = %2
  ret void

10:                                               ; preds = %2
  %11 = landingpad { ptr, i32 }
          cleanup
  %12 = extractvalue { ptr, i32 } %11, 0
  store ptr %12, ptr %5, align 8
  %13 = extractvalue { ptr, i32 } %11, 1
  store i32 %13, ptr %6, align 4
  call void @_ZN2cv11_InputArrayD2Ev(ptr noundef nonnull align 8 dereferenceable(24) %7) #3
  br label %14

14:                                               ; preds = %10
  %15 = load ptr, ptr %5, align 8
  %16 = load i32, ptr %6, align 4
  %17 = insertvalue { ptr, i32 } poison, ptr %15, 0
  %18 = insertvalue { ptr, i32 } %17, i32 %16, 1
  resume { ptr, i32 } %18
}

; Function Attrs: inlinehint mustprogress nounwind uwtable
define linkonce_odr hidden noundef zeroext i1 @_ZNK2cv5Size_IiE5emptyEv(ptr noundef nonnull align 4 dereferenceable(8) %0) #9 comdat align 2 {
  %2 = alloca ptr, align 8
  store ptr %0, ptr %2, align 8, !tbaa !49
  %3 = load ptr, ptr %2, align 8
  %4 = getelementptr inbounds nuw %"class.cv::Size_", ptr %3, i32 0, i32 0
  %5 = load i32, ptr %4, align 4, !tbaa !51
  %6 = icmp sle i32 %5, 0
  br i1 %6, label %11, label %7

7:                                                ; preds = %1
  %8 = getelementptr inbounds nuw %"class.cv::Size_", ptr %3, i32 0, i32 1
  %9 = load i32, ptr %8, align 4, !tbaa !53
  %10 = icmp sle i32 %9, 0
  br label %11

11:                                               ; preds = %7, %1
  %12 = phi i1 [ true, %1 ], [ %10, %7 ]
  ret i1 %12
}

; Function Attrs: mustprogress uwtable
define void @_ZN2cv7omnidir14undistortImageERKNS_11_InputArrayERKNS_12_OutputArrayES3_S3_S3_iS3_RKNS_5Size_IiEES3_(ptr noundef nonnull align 8 dereferenceable(24) %0, ptr noundef nonnull align 8 dereferenceable(24) %1, ptr noundef nonnull align 8 dereferenceable(24) %2, ptr noundef nonnull align 8 dereferenceable(24) %3, ptr noundef nonnull align 8 dereferenceable(24) %4, i32 noundef %5, ptr noundef nonnull align 8 dereferenceable(24) %6, ptr noundef nonnull align 4 dereferenceable(8) %7, ptr noundef nonnull align 8 dereferenceable(24) %8) #4 personality ptr @__gxx_personality_v0 {
  %10 = alloca ptr, align 8
  %11 = alloca ptr, align 8
  %12 = alloca ptr, align 8
  %13 = alloca ptr, align 8
  %14 = alloca ptr, align 8
  %15 = alloca i32, align 4
  %16 = alloca ptr, align 8
  %17 = alloca ptr, align 8
  %18 = alloca ptr, align 8
  %19 = alloca %"class.cv::Size_", align 4
  %20 = alloca %"class.cv::Mat", align 8
  %21 = alloca %"class.cv::Mat", align 8
  %22 = alloca %"class.cv::_OutputArray", align 8
  %23 = alloca ptr, align 8
  %24 = alloca i32, align 4
  %25 = alloca %"class.cv::_OutputArray", align 8
  %26 = alloca %"class.cv::_InputArray", align 8
  %27 = alloca %"class.cv::_InputArray", align 8
  %28 = alloca %"class.cv::Scalar_", align 8
  store ptr %0, ptr %10, align 8, !tbaa !3
  store ptr %1, ptr %11, align 8, !tbaa !8
  store ptr %2, ptr %12, align 8, !tbaa !3
  store ptr %3, ptr %13, align 8, !tbaa !3
  store ptr %4, ptr %14, align 8, !tbaa !3
  store i32 %5, ptr %15, align 4, !tbaa !14
  store ptr %6, ptr %16, align 8, !tbaa !3
  store ptr %7, ptr %17, align 8, !tbaa !49
  store ptr %8, ptr %18, align 8, !tbaa !3
  call void @llvm.lifetime.start.p0(i64 8, ptr %19) #3
  %29 = load ptr, ptr %17, align 8, !tbaa !49
  %30 = call noundef zeroext i1 @_ZNK2cv5Size_IiE5emptyEv(ptr noundef nonnull align 4 dereferenceable(8) %29)
  br i1 %30, label %31, label %34

31:                                               ; preds = %9
  %32 = load ptr, ptr %10, align 8, !tbaa !3
  %33 = call i64 @_ZNK2cv11_InputArray4sizeEi(ptr noundef nonnull align 8 dereferenceable(24) %32, i32 noundef -1)
  store i64 %33, ptr %19, align 4
  br label %36

34:                                               ; preds = %9
  %35 = load ptr, ptr %17, align 8, !tbaa !49
  call void @llvm.memcpy.p0.p0.i64(ptr align 4 %19, ptr align 4 %35, i64 8, i1 false), !tbaa.struct !109
  br label %36

36:                                               ; preds = %34, %31
  call void @llvm.lifetime.start.p0(i64 96, ptr %20) #3
  call void @_ZN2cv3MatC1Ev(ptr noundef nonnull align 8 dereferenceable(96) %20) #3
  call void @llvm.lifetime.start.p0(i64 96, ptr %21) #3
  call void @_ZN2cv3MatC1Ev(ptr noundef nonnull align 8 dereferenceable(96) %21) #3
  %37 = load ptr, ptr %12, align 8, !tbaa !3
  %38 = load ptr, ptr %13, align 8, !tbaa !3
  %39 = load ptr, ptr %14, align 8, !tbaa !3
  %40 = load ptr, ptr %18, align 8, !tbaa !3
  %41 = load ptr, ptr %16, align 8, !tbaa !3
  call void @llvm.lifetime.start.p0(i64 24, ptr %22) #3
  invoke void @_ZN2cv12_OutputArrayC2ERNS_3MatE(ptr noundef nonnull align 8 dereferenceable(24) %22, ptr noundef nonnull align 8 dereferenceable(96) %20)
          to label %42 unwind label %52

42:                                               ; preds = %36
  call void @llvm.lifetime.start.p0(i64 24, ptr %25) #3
  invoke void @_ZN2cv12_OutputArrayC2ERNS_3MatE(ptr noundef nonnull align 8 dereferenceable(24) %25, ptr noundef nonnull align 8 dereferenceable(96) %21)
          to label %43 unwind label %56

43:                                               ; preds = %42
  %44 = load i32, ptr %15, align 4, !tbaa !14
  invoke void @_ZN2cv7omnidir23initUndistortRectifyMapERKNS_11_InputArrayES3_S3_S3_S3_RKNS_5Size_IiEEiRKNS_12_OutputArrayESA_i(ptr noundef nonnull align 8 dereferenceable(24) %37, ptr noundef nonnull align 8 dereferenceable(24) %38, ptr noundef nonnull align 8 dereferenceable(24) %39, ptr noundef nonnull align 8 dereferenceable(24) %40, ptr noundef nonnull align 8 dereferenceable(24) %41, ptr noundef nonnull align 4 dereferenceable(8) %19, i32 noundef 11, ptr noundef nonnull align 8 dereferenceable(24) %22, ptr noundef nonnull align 8 dereferenceable(24) %25, i32 noundef %44)
          to label %45 unwind label %60

45:                                               ; preds = %43
  call void @_ZN2cv11_InputArrayD2Ev(ptr noundef nonnull align 8 dereferenceable(24) %25) #3
  call void @llvm.lifetime.end.p0(i64 24, ptr %25) #3
  call void @_ZN2cv11_InputArrayD2Ev(ptr noundef nonnull align 8 dereferenceable(24) %22) #3
  call void @llvm.lifetime.end.p0(i64 24, ptr %22) #3
  %46 = load ptr, ptr %10, align 8, !tbaa !3
  %47 = load ptr, ptr %11, align 8, !tbaa !8
  call void @llvm.lifetime.start.p0(i64 24, ptr %26) #3
  invoke void @_ZN2cv11_InputArrayC2ERKNS_3MatE(ptr noundef nonnull align 8 dereferenceable(24) %26, ptr noundef nonnull align 8 dereferenceable(96) %20)
          to label %48 unwind label %66

48:                                               ; preds = %45
  call void @llvm.lifetime.start.p0(i64 24, ptr %27) #3
  invoke void @_ZN2cv11_InputArrayC2ERKNS_3MatE(ptr noundef nonnull align 8 dereferenceable(24) %27, ptr noundef nonnull align 8 dereferenceable(96) %21)
          to label %49 unwind label %70

49:                                               ; preds = %48
  call void @llvm.lifetime.start.p0(i64 32, ptr %28) #3
  invoke void @_ZN2cv7Scalar_IdEC2Ev(ptr noundef nonnull align 8 dereferenceable(32) %28)
          to label %50 unwind label %74

50:                                               ; preds = %49
  invoke void @_ZN2cv5remapERKNS_11_InputArrayERKNS_12_OutputArrayES2_S2_iiRKNS_7Scalar_IdEE(ptr noundef nonnull align 8 dereferenceable(24) %46, ptr noundef nonnull align 8 dereferenceable(24) %47, ptr noundef nonnull align 8 dereferenceable(24) %26, ptr noundef nonnull align 8 dereferenceable(24) %27, i32 noundef 1, i32 noundef 0, ptr noundef nonnull align 8 dereferenceable(32) %28)
          to label %51 unwind label %74

51:                                               ; preds = %50
  call void @llvm.lifetime.end.p0(i64 32, ptr %28) #3
  call void @_ZN2cv11_InputArrayD2Ev(ptr noundef nonnull align 8 dereferenceable(24) %27) #3
  call void @llvm.lifetime.end.p0(i64 24, ptr %27) #3
  call void @_ZN2cv11_InputArrayD2Ev(ptr noundef nonnull align 8 dereferenceable(24) %26) #3
  call void @llvm.lifetime.end.p0(i64 24, ptr %26) #3
  call void @_ZN2cv3MatD1Ev(ptr noundef nonnull align 8 dereferenceable(96) %21) #3
  call void @llvm.lifetime.end.p0(i64 96, ptr %21) #3
  call void @_ZN2cv3MatD1Ev(ptr noundef nonnull align 8 dereferenceable(96) %20) #3
  call void @llvm.lifetime.end.p0(i64 96, ptr %20) #3
  call void @llvm.lifetime.end.p0(i64 8, ptr %19) #3
  ret void

52:                                               ; preds = %36
  %53 = landingpad { ptr, i32 }
          cleanup
  %54 = extractvalue { ptr, i32 } %53, 0
  store ptr %54, ptr %23, align 8
  %55 = extractvalue { ptr, i32 } %53, 1
  store i32 %55, ptr %24, align 4
  br label %65

56:                                               ; preds = %42
  %57 = landingpad { ptr, i32 }
          cleanup
  %58 = extractvalue { ptr, i32 } %57, 0
  store ptr %58, ptr %23, align 8
  %59 = extractvalue { ptr, i32 } %57, 1
  store i32 %59, ptr %24, align 4
  br label %64

60:                                               ; preds = %43
  %61 = landingpad { ptr, i32 }
          cleanup
  %62 = extractvalue { ptr, i32 } %61, 0
  store ptr %62, ptr %23, align 8
  %63 = extractvalue { ptr, i32 } %61, 1
  store i32 %63, ptr %24, align 4
  call void @_ZN2cv11_InputArrayD2Ev(ptr noundef nonnull align 8 dereferenceable(24) %25) #3
  br label %64

64:                                               ; preds = %60, %56
  call void @llvm.lifetime.end.p0(i64 24, ptr %25) #3
  call void @_ZN2cv11_InputArrayD2Ev(ptr noundef nonnull align 8 dereferenceable(24) %22) #3
  br label %65

65:                                               ; preds = %64, %52
  call void @llvm.lifetime.end.p0(i64 24, ptr %22) #3
  br label %80

66:                                               ; preds = %45
  %67 = landingpad { ptr, i32 }
          cleanup
  %68 = extractvalue { ptr, i32 } %67, 0
  store ptr %68, ptr %23, align 8
  %69 = extractvalue { ptr, i32 } %67, 1
  store i32 %69, ptr %24, align 4
  br label %79

70:                                               ; preds = %48
  %71 = landingpad { ptr, i32 }
          cleanup
  %72 = extractvalue { ptr, i32 } %71, 0
  store ptr %72, ptr %23, align 8
  %73 = extractvalue { ptr, i32 } %71, 1
  store i32 %73, ptr %24, align 4
  br label %78

74:                                               ; preds = %50, %49
  %75 = landingpad { ptr, i32 }
          cleanup
  %76 = extractvalue { ptr, i32 } %75, 0
  store ptr %76, ptr %23, align 8
  %77 = extractvalue { ptr, i32 } %75, 1
  store i32 %77, ptr %24, align 4
  call void @llvm.lifetime.end.p0(i64 32, ptr %28) #3
  call void @_ZN2cv11_InputArrayD2Ev(ptr noundef nonnull align 8 dereferenceable(24) %27) #3
  br label %78

78:                                               ; preds = %74, %70
  call void @llvm.lifetime.end.p0(i64 24, ptr %27) #3
  call void @_ZN2cv11_InputArrayD2Ev(ptr noundef nonnull align 8 dereferenceable(24) %26) #3
  br label %79

79:                                               ; preds = %78, %66
  call void @llvm.lifetime.end.p0(i64 24, ptr %26) #3
  br label %80

80:                                               ; preds = %79, %65
  call void @_ZN2cv3MatD1Ev(ptr noundef nonnull align 8 dereferenceable(96) %21) #3
  call void @llvm.lifetime.end.p0(i64 96, ptr %21) #3
  call void @_ZN2cv3MatD1Ev(ptr noundef nonnull align 8 dereferenceable(96) %20) #3
  call void @llvm.lifetime.end.p0(i64 96, ptr %20) #3
  call void @llvm.lifetime.end.p0(i64 8, ptr %19) #3
  br label %81

81:                                               ; preds = %80
  %82 = load ptr, ptr %23, align 8
  %83 = load i32, ptr %24, align 4
  %84 = insertvalue { ptr, i32 } poison, ptr %82, 0
  %85 = insertvalue { ptr, i32 } %84, i32 %83, 1
  resume { ptr, i32 } %85
}