; Function Attrs: mustprogress uwtable
define void @_ZN2cv7omnidir14undistortImageERKNS_11_InputArrayERKNS_12_OutputArrayES3_S3_S3_iS3_RKNS_5Size_IiEES3_(ptr noundef nonnull align 8 dereferenceable(24) %0, ptr noundef nonnull align 8 dereferenceable(24) %1, ptr noundef nonnull align 8 dereferenceable(24) %2, ptr noundef nonnull align 8 dereferenceable(24) %3, ptr noundef nonnull align 8 dereferenceable(24) %4, i32 noundef %5, ptr noundef nonnull align 8 dereferenceable(24) %6, ptr noundef nonnull readonly align 4 captures(none) dereferenceable(8) %7, ptr noundef nonnull align 8 dereferenceable(24) %8) local_unnamed_addr #3 personality ptr @__gxx_personality_v0 {
  %10 = alloca %"class.cv::Size_", align 8
  %11 = alloca %"class.cv::Mat", align 8
  %12 = alloca %"class.cv::Mat", align 8
  %13 = alloca %"class.cv::_OutputArray", align 8
  %14 = alloca %"class.cv::_OutputArray", align 8
  %15 = alloca %"class.cv::_InputArray", align 8
  %16 = alloca %"class.cv::_InputArray", align 8
  %17 = alloca %"class.cv::Scalar_", align 8
  call void @llvm.lifetime.start.p0(i64 8, ptr nonnull %10) #24
  %18 = load i32, ptr %7, align 4, !tbaa !293
  %19 = icmp slt i32 %18, 1
  %20 = getelementptr inbounds nuw i8, ptr %7, i64 4
  %21 = load i32, ptr %20, align 4
  %22 = icmp slt i32 %21, 1
  %23 = select i1 %19, i1 true, i1 %22
  br i1 %23, label %24, label %26

24:                                               ; preds = %9
  %25 = tail call i64 @_ZNK2cv11_InputArray4sizeEi(ptr noundef nonnull align 8 dereferenceable(24) %0, i32 noundef -1)
  br label %28

26:                                               ; preds = %9
  %27 = load i64, ptr %7, align 4
  br label %28

28:                                               ; preds = %26, %24
  %storemerge = phi i64 [ %27, %26 ], [ %25, %24 ]
  store i64 %storemerge, ptr %10, align 8
  call void @llvm.lifetime.start.p0(i64 96, ptr nonnull %11) #24
  call void @_ZN2cv3MatC1Ev(ptr noundef nonnull align 8 dereferenceable(96) %11) #24
  call void @llvm.lifetime.start.p0(i64 96, ptr nonnull %12) #24
  call void @_ZN2cv3MatC1Ev(ptr noundef nonnull align 8 dereferenceable(96) %12) #24
  call void @llvm.lifetime.start.p0(i64 24, ptr nonnull %13) #24
  %29 = getelementptr inbounds nuw i8, ptr %13, i64 8
  %30 = getelementptr inbounds nuw i8, ptr %13, i64 16
  store i64 0, ptr %30, align 8
  store i32 33619968, ptr %13, align 8, !tbaa !3
  store ptr %11, ptr %29, align 8, !tbaa !10
  call void @llvm.lifetime.start.p0(i64 24, ptr nonnull %14) #24
  %31 = getelementptr inbounds nuw i8, ptr %14, i64 8
  %32 = getelementptr inbounds nuw i8, ptr %14, i64 16
  store i64 0, ptr %32, align 8
  store i32 33619968, ptr %14, align 8, !tbaa !3
  store ptr %12, ptr %31, align 8, !tbaa !10
  invoke void @_ZN2cv7omnidir23initUndistortRectifyMapERKNS_11_InputArrayES3_S3_S3_S3_RKNS_5Size_IiEEiRKNS_12_OutputArrayESA_i(ptr noundef nonnull align 8 dereferenceable(24) %2, ptr noundef nonnull align 8 dereferenceable(24) %3, ptr noundef nonnull align 8 dereferenceable(24) %4, ptr noundef nonnull align 8 dereferenceable(24) %8, ptr noundef nonnull align 8 dereferenceable(24) %6, ptr noundef nonnull align 4 dereferenceable(8) %10, i32 noundef 11, ptr noundef nonnull align 8 dereferenceable(24) %13, ptr noundef nonnull align 8 dereferenceable(24) %14, i32 noundef %5)
          to label %33 unwind label %41

33:                                               ; preds = %28
  call void @llvm.lifetime.end.p0(i64 24, ptr nonnull %14) #24
  call void @llvm.lifetime.end.p0(i64 24, ptr nonnull %13) #24
  call void @llvm.lifetime.start.p0(i64 24, ptr nonnull %15) #24
  %34 = getelementptr inbounds nuw i8, ptr %15, i64 16
  store i32 0, ptr %34, align 8, !tbaa !293
  %35 = getelementptr inbounds nuw i8, ptr %15, i64 20
  store i32 0, ptr %35, align 4, !tbaa !284
  store i32 16842752, ptr %15, align 8, !tbaa !3
  %36 = getelementptr inbounds nuw i8, ptr %15, i64 8
  store ptr %11, ptr %36, align 8, !tbaa !10
  call void @llvm.lifetime.start.p0(i64 24, ptr nonnull %16) #24
  %37 = getelementptr inbounds nuw i8, ptr %16, i64 16
  store i32 0, ptr %37, align 8, !tbaa !293
  %38 = getelementptr inbounds nuw i8, ptr %16, i64 20
  store i32 0, ptr %38, align 4, !tbaa !284
  store i32 16842752, ptr %16, align 8, !tbaa !3
  %39 = getelementptr inbounds nuw i8, ptr %16, i64 8
  store ptr %12, ptr %39, align 8, !tbaa !10
  call void @llvm.lifetime.start.p0(i64 32, ptr nonnull %17) #24
  call void @llvm.memset.p0.i64(ptr noundef nonnull align 8 dereferenceable(32) %17, i8 0, i64 32, i1 false)
  invoke void @_ZN2cv5remapERKNS_11_InputArrayERKNS_12_OutputArrayES2_S2_iiRKNS_7Scalar_IdEE(ptr noundef nonnull align 8 dereferenceable(24) %0, ptr noundef nonnull align 8 dereferenceable(24) %1, ptr noundef nonnull align 8 dereferenceable(24) %15, ptr noundef nonnull align 8 dereferenceable(24) %16, i32 noundef 1, i32 noundef 0, ptr noundef nonnull align 8 dereferenceable(32) %17)
          to label %40 unwind label %43

40:                                               ; preds = %33
  call void @llvm.lifetime.end.p0(i64 32, ptr nonnull %17) #24
  call void @llvm.lifetime.end.p0(i64 24, ptr nonnull %16) #24
  call void @llvm.lifetime.end.p0(i64 24, ptr nonnull %15) #24
  call void @_ZN2cv3MatD1Ev(ptr noundef nonnull align 8 dereferenceable(96) %12) #24
  call void @llvm.lifetime.end.p0(i64 96, ptr nonnull %12) #24
  call void @_ZN2cv3MatD1Ev(ptr noundef nonnull align 8 dereferenceable(96) %11) #24
  call void @llvm.lifetime.end.p0(i64 96, ptr nonnull %11) #24
  call void @llvm.lifetime.end.p0(i64 8, ptr nonnull %10) #24
  ret void

41:                                               ; preds = %28
  %42 = landingpad { ptr, i32 }
          cleanup
  call void @llvm.lifetime.end.p0(i64 24, ptr nonnull %14) #24
  call void @llvm.lifetime.end.p0(i64 24, ptr nonnull %13) #24
  br label %45

43:                                               ; preds = %33
  %44 = landingpad { ptr, i32 }
          cleanup
  call void @llvm.lifetime.end.p0(i64 32, ptr nonnull %17) #24
  call void @llvm.lifetime.end.p0(i64 24, ptr nonnull %16) #24
  call void @llvm.lifetime.end.p0(i64 24, ptr nonnull %15) #24
  br label %45

45:                                               ; preds = %43, %41
  %.pn19.pn.pn = phi { ptr, i32 } [ %44, %43 ], [ %42, %41 ]
  call void @_ZN2cv3MatD1Ev(ptr noundef nonnull align 8 dereferenceable(96) %12) #24
  call void @llvm.lifetime.end.p0(i64 96, ptr nonnull %12) #24
  call void @_ZN2cv3MatD1Ev(ptr noundef nonnull align 8 dereferenceable(96) %11) #24
  call void @llvm.lifetime.end.p0(i64 96, ptr nonnull %11) #24
  call void @llvm.lifetime.end.p0(i64 8, ptr nonnull %10) #24
  resume { ptr, i32 } %.pn19.pn.pn
}